; Function Attrs: mustprogress uwtable
define hidden i32 @_ZN6recfun6solver11internalizeEP4exprbb(ptr noundef nonnull align 8 dereferenceable(268) %this, ptr noundef %e, i1 noundef zeroext %sign, i1 noundef zeroext %root) unnamed_addr #3 align 2 {
entry:
  %m_num_scopes.i = getelementptr inbounds i8, ptr %this, i64 104
  %0 = load i32, ptr %m_num_scopes.i, align 8
  %cmp.not1.i = icmp eq i32 %0, 0
  br i1 %cmp.not1.i, label %_ZN3euf13th_euf_solver10force_pushEv.exit, label %for.body.i

for.body.i:                                       ; preds = %entry, %for.body.i
  %vtable.i = load ptr, ptr %this, align 8
  %vfn.i = getelementptr inbounds i8, ptr %vtable.i, i64 496
  %1 = load ptr, ptr %vfn.i, align 8
  tail call void %1(ptr noundef nonnull align 8 dereferenceable(108) %this)
  %2 = load i32, ptr %m_num_scopes.i, align 8
  %dec.i = add i32 %2, -1
  store i32 %dec.i, ptr %m_num_scopes.i, align 8
  %cmp.not.i = icmp eq i32 %dec.i, 0
  br i1 %cmp.not.i, label %_ZN3euf13th_euf_solver10force_pushEv.exit, label %for.body.i, !llvm.loop !25

_ZN3euf13th_euf_solver10force_pushEv.exit:        ; preds = %for.body.i, %entry
  %add.ptr = getelementptr inbounds i8, ptr %this, i64 48
  %m = getelementptr inbounds i8, ptr %this, i64 72
  %3 = load ptr, ptr %m, align 8
  %call = tail call noundef zeroext i1 @_ZN3euf15th_internalizer9visit_recER11ast_managerP4exprbb(ptr noundef nonnull align 8 dereferenceable(24) %add.ptr, ptr noundef nonnull align 8 dereferenceable(976) %3, ptr noundef %e, i1 noundef zeroext %sign, i1 noundef zeroext %root)
  br i1 %call, label %if.end, label %if.then

if.then:                                          ; preds = %_ZN3euf13th_euf_solver10force_pushEv.exit
  %.b = load i1, ptr @_ZN3satL12null_literalE.0, align 4
  %4 = select i1 %.b, i32 -2, i32 0
  br label %return

if.end:                                           ; preds = %_ZN3euf13th_euf_solver10force_pushEv.exit
  %call4 = tail call i32 @_ZNK3euf13th_euf_solver12expr2literalEP4expr(ptr noundef nonnull align 8 dereferenceable(108) %this, ptr noundef %e)
  %xor.i = zext i1 %sign to i32
  %spec.select = xor i32 %call4, %xor.i
  br label %return

return:                                           ; preds = %if.end, %if.then
  %retval.sroa.0.0 = phi i32 [ %4, %if.then ], [ %spec.select, %if.end ]
  ret i32 %retval.sroa.0.0
}